target datalayout = "e-m:e-p270:32:32-p271:32:32-p272:64:64-i64:64-i128:128-f80:128-n8:16:32:64-S128"
target triple = "x86_64-pc-linux-gnu"

%struct.V360Context = type { ptr, i32, i32, i32, i32, i32, i32, i32, ptr, ptr, ptr, ptr, ptr, [6 x i32], [6 x i32], [6 x i32], [6 x i32], [3 x i32], i32, i32, float, float, i32, i32, float, float, float, float, float, i32, i32, i32, i32, i32, i32, i32, float, float, float, float, float, float, [2 x float], [2 x float], [2 x [4 x float]], [3 x float], i32, i32, i32, i32, [4 x i32], [4 x i32], [4 x i32], [4 x i32], [4 x i32], [4 x i32], [4 x i32], [4 x i32], [4 x i32], [4 x i32], [4 x i32], i32, i32, i32, i32, i32, i32, ptr, [4 x i32], ptr, ptr, ptr, ptr, ptr }

; Function Attrs: alwaysinline nounwind uwtable
define internal float @rescale(i32 noundef %0, float noundef %1) #12 {
  %3 = alloca i32, align 4
  %4 = alloca float, align 4
  store i32 %0, ptr %3, align 4, !tbaa !9
  store float %1, ptr %4, align 4, !tbaa !99
  %5 = load i32, ptr %3, align 4, !tbaa !9
  %6 = sitofp i32 %5 to float
  %7 = call nsz float @llvm.fmuladd.f32(float 2.000000e+00, float %6, float 1.000000e+00)
  %8 = load float, ptr %4, align 4, !tbaa !99
  %9 = fdiv nsz float %7, %8
  %10 = fsub nsz float %9, 1.000000e+00
  ret float %10
}

; Function Attrs: nounwind uwtable
define internal i32 @stereographic_to_xyz(ptr noundef %0, i32 noundef %1, i32 noundef %2, i32 noundef %3, i32 noundef %4, ptr noundef %5) #0 {
  %7 = alloca ptr, align 8
  %8 = alloca i32, align 4
  %9 = alloca i32, align 4
  %10 = alloca i32, align 4
  %11 = alloca i32, align 4
  %12 = alloca ptr, align 8
  %13 = alloca float, align 4
  %14 = alloca float, align 4
  %15 = alloca float, align 4
  %16 = alloca float, align 4
  %17 = alloca float, align 4
  store ptr %0, ptr %7, align 8, !tbaa !4
  store i32 %1, ptr %8, align 4, !tbaa !9
  store i32 %2, ptr %9, align 4, !tbaa !9
  store i32 %3, ptr %10, align 4, !tbaa !9
  store i32 %4, ptr %11, align 4, !tbaa !9
  store ptr %5, ptr %12, align 8, !tbaa !188
  call void @llvm.lifetime.start.p0(i64 4, ptr %13) #13
  %18 = load i32, ptr %8, align 4, !tbaa !9
  %19 = load i32, ptr %10, align 4, !tbaa !9
  %20 = sitofp i32 %19 to float
  %21 = call nsz float @rescale(i32 noundef %18, float noundef %20)
  %22 = load ptr, ptr %7, align 8, !tbaa !4
  %23 = getelementptr inbounds nuw %struct.V360Context, ptr %22, i32 0, i32 42
  %24 = getelementptr inbounds [2 x float], ptr %23, i64 0, i64 0
  %25 = load float, ptr %24, align 4, !tbaa !99
  %26 = fmul nsz float %21, %25
  store float %26, ptr %13, align 4, !tbaa !99
  call void @llvm.lifetime.start.p0(i64 4, ptr %14) #13
  %27 = load i32, ptr %9, align 4, !tbaa !9
  %28 = load i32, ptr %11, align 4, !tbaa !9
  %29 = sitofp i32 %28 to float
  %30 = call nsz float @rescale(i32 noundef %27, float noundef %29)
  %31 = load ptr, ptr %7, align 8, !tbaa !4
  %32 = getelementptr inbounds nuw %struct.V360Context, ptr %31, i32 0, i32 42
  %33 = getelementptr inbounds [2 x float], ptr %32, i64 0, i64 1
  %34 = load float, ptr %33, align 4, !tbaa !99
  %35 = fmul nsz float %30, %34
  store float %35, ptr %14, align 4, !tbaa !99
  call void @llvm.lifetime.start.p0(i64 4, ptr %15) #13
  %36 = load float, ptr %13, align 4, !tbaa !99
  %37 = load float, ptr %14, align 4, !tbaa !99
  %38 = call nsz float @hypotf(float noundef %36, float noundef %37) #14
  store float %38, ptr %15, align 4, !tbaa !99
  call void @llvm.lifetime.start.p0(i64 4, ptr %16) #13
  %39 = load float, ptr %15, align 4, !tbaa !99
  %40 = call nsz float @llvm.atan.f32(float %39)
  %41 = fmul nsz float %40, 2.000000e+00
  store float %41, ptr %16, align 4, !tbaa !99
  call void @llvm.lifetime.start.p0(i64 4, ptr %17) #13
  %42 = load float, ptr %16, align 4, !tbaa !99
  %43 = call nsz float @llvm.sin.f32(float %42)
  store float %43, ptr %17, align 4, !tbaa !99
  %44 = load float, ptr %13, align 4, !tbaa !99
  %45 = load float, ptr %15, align 4, !tbaa !99
  %46 = fdiv nsz float %44, %45
  %47 = load float, ptr %17, align 4, !tbaa !99
  %48 = fmul nsz float %46, %47
  %49 = load ptr, ptr %12, align 8, !tbaa !188
  %50 = getelementptr inbounds float, ptr %49, i64 0
  store float %48, ptr %50, align 4, !tbaa !99
  %51 = load float, ptr %14, align 4, !tbaa !99
  %52 = load float, ptr %15, align 4, !tbaa !99
  %53 = fdiv nsz float %51, %52
  %54 = load float, ptr %17, align 4, !tbaa !99
  %55 = fmul nsz float %53, %54
  %56 = load ptr, ptr %12, align 8, !tbaa !188
  %57 = getelementptr inbounds float, ptr %56, i64 1
  store float %55, ptr %57, align 4, !tbaa !99
  %58 = load float, ptr %16, align 4, !tbaa !99
  %59 = call nsz float @llvm.cos.f32(float %58)
  %60 = load ptr, ptr %12, align 8, !tbaa !188
  %61 = getelementptr inbounds float, ptr %60, i64 2
  store float %59, ptr %61, align 4, !tbaa !99
  call void @llvm.lifetime.end.p0(i64 4, ptr %17) #13
  call void @llvm.lifetime.end.p0(i64 4, ptr %16) #13
  call void @llvm.lifetime.end.p0(i64 4, ptr %15) #13
  call void @llvm.lifetime.end.p0(i64 4, ptr %14) #13
  call void @llvm.lifetime.end.p0(i64 4, ptr %13) #13
  ret i32 1
}